(lp1
S'-D Man'
p2
aS'AA-Bomb'
p3
aS'Abe Sapien'
p4
aS'Abin Sur'
p5
aS'Abomination'
p6
aS'Abraxas'
p7
aS'Adam Monroe'
p8
aS'Adam Strange  Agent'
p9
aS'Agent Bob'
p10
aS'Agent Zero'
p11
aS'Air-Walker'
p12
aS'Alan Scott'
p13
aS'Alex Woolsly  Alfred Pennyworth'
p14
aS'Allan Quatermain  Amazo'
p15
aS'Ammo  Ando Masahashi  Angel'
p16
aS'Angel Salvadore'
p17
aS'Angela  Animal Man'
p18
aS'Annihilus'
p19
aS'Ant-Man'
p20
aS'Ant-Man II'
p21
aS'Anti-Monitor'
p22
aS'Anti-Spawn  Anti-Venom'
p23
aS'Apocalypse'
p24
aS'Aquababy'
p25
aS'Aqualad'
p26
aS'Aquaman'
p27
aS'Arachne  Archangel'
p28
aS'Arclight'
p29
aS'Ares'
p30
aS'Ariel'
p31
aS'Armor'
p32
aS'Arsenal  Astro Boy  Atlas'
p33
aS'Atom  Atom Girl'
p34
aS'Atom I  Atom II  Atom III  Atom IV  Aurora'
p35
aS'Azazel'
p36
aS'Azrael'
p37
aS'Aztar  BBane'
p38
aS'Banshee'
p39
aS'Bantam'
p40
aS'Batgirl I  Batgirl II  Batgirl III  Batgirl IV'
p41
aS'Batgirl V  Batgirl VI'
p42
aS'Batman'
p43
aS'Batman II'
p44
aS'Battlestar'
p45
aS'Beak  Beast'
p46
aS'Beast Boy'
p47
aS'Beetle  Ben'
p48
aS''
aS'Beta Ray Bill'
p49
aS'Beyonder'
p50
aS'Big Barda'
p51
aS'Big Daddy'
p52
aS'Big Man'
p53
aS'Bill Harken'
p54
aS'Billy Kincaid  Binary  Bird-Brain'
p55
aS'Bird-Man  Bird-Man II  Birdman  Bishop'
p56
aS'Bizarro'
p57
aS'Black Abbott  Black Adam'
p58
aS'Black Bolt'
p59
aS'Black Canary I  Black Canary II  Black Cat'
p60
aS'Black Goliath  Black Knight III'
p61
aS'Black Lightning'
p62
aS'Black Mamba'
p63
aS'Black Panther'
p64
aS'Black Widow'
p65
aS'Black Widow II  Blackout'
p66
aS'Blackwing'
p67
aS'Blackwulf'
p68
aS'Blade'
p69
aS'Blaquesmith  Bling!'
p70
aS'Blink'
p71
aS'Blizzard  Blizzard I  Blizzard II'
p72
aS'Blob'
p73
aS'Bloodaxe'
p74
aS'Bloodhawk'
p75
aS'Bloodwraith  Blue Beetle  Blue Beetle I  Blue Beetle II  Blue Beetle III'
p76
aS'Bolt  Bomb Queen  Boom Boom'
p77
aS'Boomer  Booster Gold'
p78
aS'Box  Box III  Box IV'
p79
aS'Brainiac'
p80
aS'Brainiac'
p81
aS''
aS'Brother Voodoo  Bullseye'
p82
aS'Bumblebee'
p83
aS'Bumbleboy  Bushido'
p84
aS'CCable'
p85
aS'Callisto'
p86
aS'Cameron Hicks'
p87
aS'Cannonball'
p88
aS'Captain America'
p89
aS'Captain Atom  Captain Britain'
p90
aS'Captain Epic  Captain Mar-vell  Captain Marvel'
p91
aS'Captain Marvel II'
p92
aS'Captain Planet  Captain Universe  Carnage'
p93
aS'Cat  Cat II  Catwoman'
p94
aS'Cecilia Reyes  Century'
p95
aS'Cerebra  Chamber'
p96
aS'Chameleon'
p97
aS'Changeling'
p98
aS'Cheetah I  Cheetah II  Cheetah III  Chromos  Chuck Norris'
p99
aS'Claire Bennet'
p100
aS'Clea  Cloak'
p101
aS'Cogliostro  Colin Wagner  Colossal Boy  Colossus'
p102
aS'Corsair  Crimson Crusader  Crimson Dynamo I  Crystal'
p103
aS'Curse  Cy-Gor  Cyborg'
p104
aS'Cyborg Superman'
p105
aS'Cyclops'
p106
aS'Cypher  DDagger'
p107
aS'Danny Cooper  Daphne Powell'
p108
aS'Daredevil'
p109
aS'Darkhawk'
p110
aS'Darkman'
p111
aS'Darkseid'
p112
aS'Darkside  Darkstar'
p113
aS'Dash'
p114
aS'Dazzler'
p115
aS'Deadman'
p116
aS'Deadpool'
p117
aS'Deadshot'
p118
aS'Deathlok'
p119
aS'Deathstroke'
p120
aS'Demogoblin'
p121
aS'Destroyer'
p122
aS'DL Hawkins'
p123
aS'Doc Samson'
p124
aS'Doctor Doom'
p125
aS'Doctor Doom II  Doctor Fate'
p126
aS'Doctor Octopus  Doctor Strange'
p127
aS'Domino'
p128
aS'Donna Troy  Doomsday'
p129
aS'Doppelganger'
p130
aS'Dormammu'
p131
aS'Dr Manhattan'
p132
aS'EEgo'
p133
aS'Elastigirl'
p134
aS'Electro'
p135
aS'Elektra'
p136
aS'Elle Bishop'
p137
aS'Elongated Man'
p138
aS'Emma Frost'
p139
aS'Energy  ERG-'
p140
aS'Evilhawk'
p141
aS'Exodus'
p142
aS'FFabian Cortez  Falcon'
p143
aS'Fallen One II'
p144
aS'Faora'
p145
aS'Feral'
p146
aS'Fighting Spirit  Fin Fang Foom'
p147
aS'Firebird'
p148
aS'Firelord'
p149
aS'Firestar'
p150
aS'Firestorm'
p151
aS'Fixer  Flash Gordon  Flash I'
p152
aS'Flash II'
p153
aS'Flash III'
p154
aS'Flash IV'
p155
aS'Forge'
p156
aS'Franklin Richards  Franklin Storm'
p157
aS'Frenzy'
p158
aS'Frigga  GGalactus'
p159
aS'Gambit'
p160
aS'Garbage Man  Gary Bell'
p161
aS'General Zod'
p162
aS'Genesis  Ghost Rider'
p163
aS'Ghost Rider II  Giant-Man  Giant-Man II  Giganta'
p164
aS'Goblin Queen'
p165
aS'Gog'
p166
aS'Goku'
p167
aS'Goliath  Goliath II  Goliath III  Goliath IV  Granny Goodness  Gravity'
p168
aS'Green Arrow'
p169
aS'Green Goblin'
p170
aS'Green Goblin II'
p171
aS'Green Goblin III  Green Goblin IV  Groot'
p172
aS'Guardian  Guy Gardner'
p173
aS'HHal Jordan'
p174
aS'Hancock'
p175
aS'Harley Quinn'
p176
aS'Havok'
p177
aS'Hawk'
p178
aS'Hawkeye'
p179
aS'Hawkeye II'
p180
aS'Hawkgirl'
p181
aS'Hawkman  Hawkwoman I  Hawkwoman II  Hawkwoman III  Hellboy'
p182
aS'Hellcat'
p183
aS'Hellstorm  Hercules'
p184
aS'Hiro Nakamura  Hit-Girl'
p185
aS'Hobgoblin  Hollow  Hope Summers'
p186
aS'Howard the Duck  Hulk'
p187
aS'Human Torch'
p188
aS'Huntress'
p189
aS'Husk'
p190
aS'Hydro-Man'
p191
aS'Hyperion'
p192
aS'IIceman'
p193
aS'Impulse'
p194
aS'Ink'
p195
aS'Invisible Woman'
p196
aS'Iron Fist'
p197
aS'Iron Man'
p198
aS'Iron Monger'
p199
aS'Ironman  Isis'
p200
aS'JJack Bauer  Jack of Hearts'
p201
aS'Jack-jack'
p202
aS'Jean Grey'
p203
aS'Jennifer Kale'
p204
aS'Jessica Sanders  Jigsaw  Jim Powell'
p205
aS'JJ Powell'
p206
aS'Johann Krauss  John Stewart'
p207
aS'John Wraith'
p208
aS'Joker'
p209
aS'Jolt'
p210
aS'Jubilee'
p211
aS'Juggernaut'
p212
aS'Junkpile'
p213
aS'Justice'
p214
aS'KKang'
p215
aS'Kevin'
p216
aS''
aS'Kick-Ass'
p217
aS'Kid Flash'
p218
aS'Kid Flash II  Killer Croc'
p219
aS'Kilowog'
p220
aS'Kingpin'
p221
aS'Klaw'
p222
aS'Kool-Aid Man'
p223
aS'Kraven II'
p224
aS'Kraven the Hunter'
p225
aS'Krypto'
p226
aS'LLady Bullseye  Lady Deathstrike  Leader'
p227
aS'Leech'
p228
aS'Lex Luthor'
p229
aS'Light Lass'
p230
aS'Lightning Lad'
p231
aS'Lightning Lord'
p232
aS'Living Brain'
p233
aS'Liz Sherman  Lizard'
p234
aS'Lobo'
p235
aS'Loki'
p236
aS'Longshot'
p237
aS'Luke Cage'
p238
aS'Luke Campbell  Luna'
p239
aS'Lyja  MMach-IV'
p240
aS'Machine Man'
p241
aS'Magneto'
p242
aS'Magog'
p243
aS'Magus'
p244
aS'Man-Bat'
p245
aS'Man-Thing'
p246
aS'Man-Wolf'
p247
aS'Mandarin'
p248
aS'Martian Manhunter'
p249
aS'Marvel Girl'
p250
aS'Master Brood  Master Chief'
p251
aS'Match'
p252
aS'Matt Parkman'
p253
aS'Maverick'
p254
aS'Maxima'
p255
aS'Maya Herrera'
p256
aS'Medusa'
p257
aS'Meltdown'
p258
aS'Mephisto'
p259
aS'Mera'
p260
aS'Metallo'
p261
aS'Metamorpho  Meteorite  Metron'
p262
aS'Micah Sanders'
p263
aS'Micro Lad'
p264
aS'Mimic'
p265
aS'Minna Murray  Misfit'
p266
aS'Miss Martian'
p267
aS'Mister Fantastic'
p268
aS'Mister Freeze'
p269
aS'Mister Mxyzptlk'
p270
aS'Mister Sinister  Mogo  Mohinder Suresh  Moloch  Molten Man'
p271
aS'Monarch  Monica Dawson'
p272
aS'Moon Knight'
p273
aS'Moonstone'
p274
aS'Morlun'
p275
aS'Morph  Moses Magnum'
p276
aS'Mr Incredible'
p277
aS'Ms Marvel'
p278
aS'Ms Marvel II'
p279
aS'Multiple Man'
p280
aS'Mysterio I'
p281
aS'Mystique'
p282
aS'NNamor  Namora'
p283
aS'Namorita'
p284
aS'Naruto Uzumaki'
p285
aS'Nathan Petrelli  Nick Fury'
p286
aS'Nightcrawler'
p287
aS'Nightwing'
p288
aS'Niki Sanders'
p289
aS'Nina Theroux'
p290
aS'Nite Owl II  Northstar'
p291
aS'Nova'
p292
aS'Nova'
p293
aS'OOffspring'
p294
aS'Omega Red  Omniscient  Onslaught'
p295
aS'Oracle (DC)'
p296
aS'Osiris'
p297
aS'Overtkill  PPenance  Penance I  Penance II  Penguin'
p298
aS'Peter Petrelli'
p299
aS'Phantom  Phantom Girl'
p300
aS'Phoenix'
p301
aS'Plastic Lad  Plastic Man'
p302
aS'Plastique'
p303
aS'Poison Ivy'
p304
aS'Power Girl'
p305
aS'Power Man  Professor X'
p306
aS'Proto-Goblin'
p307
aS'Psylocke  Punisher'
p308
aS'Pyro'
p309
aS'QQuantum  Question'
p310
aS'Quicksilver'
p311
aS'Quill'
p312
aS"RRa's Al Ghul"
p313
aS'Rachel Pirzad'
p314
aS'Raven'
p315
aS'Razor-Fist II  Red Arrow'
p316
aS'Red Hood'
p317
aS'Red Hulk'
p318
aS'Red Mist'
p319
aS'Red Robin'
p320
aS'Red Skull'
p321
aS'Red Tornado'
p322
aS'Redeemer II  Redeemer III  Renata Soliz  Rhino'
p323
aS'Rick Flag'
p324
aS'Riddler'
p325
aS'Ripcord  Robin I'
p326
aS'Robin II  Robin III'
p327
aS'Robin V'
p328
aS'Rocket Raccoon'
p329
aS'Rogue'
p330
aS'Ronin'
p331
aS'Rorschach'
p332
aS'SSabretooth'
p333
aS'Sage'
p334
aS'Sandman'
p335
aS'Sasquatch'
p336
aS'Savage Dragon'
p337
aS'Scarecrow'
p338
aS'Scarlet Spider'
p339
aS'Scarlet Spider II'
p340
aS'Scarlet Witch'
p341
aS'Scorpia'
p342
aS'Scorpion'
p343
aS'Sentry'
p344
aS'Shadow King'
p345
aS'Shadowcat'
p346
aS'Shang-Chi'
p347
aS'Shatterstar'
p348
aS'She-Hulk'
p349
aS'She-Thing  Shocker'
p350
aS'Shriek'
p351
aS'Shrinking Violet  Sif'
p352
aS'Silk Spectre I  Silk Spectre II  Silver Surfer'
p353
aS'Silverclaw'
p354
aS'Sinestro'
p355
aS'Siren'
p356
aS'Siren II  Siryn'
p357
aS'Skaar'
p358
aS'Snowbird'
p359
aS'Sobek'
p360
aS'Solomon Grundy'
p361
aS'Songbird'
p362
aS'Space Ghost'
p363
aS'Spawn'
p364
aS'Spectre  Speedball  Speedy  Spider-Carnage  Spider-Girl'
p365
aS'Spider-Man'
p366
aS'Spider-Woman'
p367
aS'Spider-Woman II  Spider-Woman III'
p368
aS'Spider-Woman IV  Spiderman  Spyke'
p369
aS'Stacy X  Stardust'
p370
aS'Starfire'
p371
aS'Stargirl'
p372
aS'Steel'
p373
aS'Stephanie Powell'
p374
aS'Storm'
p375
aS'Sub-Mariner'
p376
aS'Sunspot'
p377
aS'Super Moos'
p378
aS'Superboy'
p379
aS'Superboy-Prime'
p380
aS'Supergirl'
p381
aS'Superman'
p382
aS'Swamp Thing'
p383
aS'Sylar'
p384
aS'Synch'
p385
aS'TTempest'
p386
aS'Thanos'
p387
aS'The Cape'
p388
aS'The Comedian'
p389
aS'Thing'
p390
aS'Thor'
p391
aS'Thor Girl'
p392
aS'Thunderbird'
p393
aS'Thunderbird II  Thunderbird III  Thunderstrike'
p394
aS'Thundra'
p395
aS'Tiger Shark'
p396
aS'Tigra'
p397
aS'Tinkerer'
p398
aS'Titan  Toad'
p399
aS'Toxin'
p400
aS'Tracy Strauss  Trickster  Triplicate Girl'
p401
aS'Two-Face'
p402
aS'UUltragirl'
p403
aS'Ultron'
p404
aS'Utgard-Loki'
p405
aS'VVagabond  Valerie Hart  Valkyrie  Vanisher'
p406
aS'Venom'
p407
aS'Venom II'
p408
aS'Venom III'
p409
aS'Vertigo II  Vindicator  Vindicator II'
p410
aS'Violator  Violet'
p411
aS'Vision'
p412
aS'Vision II  Vulcan  Vulture'
p413
aS'WWalrus'
p414
aS'War Machine'
p415
aS'Warbird  Warlock'
p416
aS'Warp'
p417
aS'Warpath'
p418
aS'Wasp'
p419
aS'Watcher'
p420
aS'Weapon XI  White Queen  Wildfire'
p421
aS'Willis Stryker'
p422
aS'Winter Soldier'
p423
aS'Wiz Kid  Wolfsbane'
p424
aS'Wolverine'
p425
aS'Wonder Girl'
p426
aS'Wonder Man'
p427
aS'Wonder Woman'
p428
aS'Wondra  Wyatt Wingfoot'
p429
aS'XX-'
p430
aS''
aS'X-Man'
p431
aS'YYellow Claw  Yellowjacket'
p432
aS'Yellowjacket II'
p433
aS'Ymir'
p434
aS'ZZatanna'
p435
aS'Zoom'
p436
a.